ccopy_reg
_reconstructor
p0
(cargparse
Namespace
p1
c__builtin__
object
p2
Ntp3
Rp4
(dp5
S'grad_clip'
p6
F10.0
sS'rnn_size'
p7
I128
sS'embedding_size'
p8
I128
sS'myCounter'
p9
I0
sS'learning_rate'
p10
F0.003
sS'num_layers'
p11
I1
sS'seq_length'
p12
I8
sS'decay_rate'
p13
F0.95
sS'leaveDataset'
p14
I3
sS'lambda_param'
p15
F0.05
sS'batch_size'
p16
I50
sS'num_epochs'
p17
I50
sS'model'
p18
S'lstm'
p19
sS'save_every'
p20
I100
sS'keep_prob'
p21
F0.8
sb.